(dp1
S'failed'
p2
(lp3
S'5'
aS'6'
aS'9'
asS'source_names'
p4
(lp5
S'.'
asS'ids'
p6
(dp7
I1
(S'/home/russell/Dropbox/TrendMapper/test/test_init.py'
S'TrendMapper.test.test_init'
S'TestInit.test_read_init'
tp8
sI2
(S'/home/russell/Dropbox/TrendMapper/test/test_qgis_environment.py'
S'TrendMapper.test.test_qgis_environment'
p9
S'QGISTest.test_projection'
tp10
sI3
(S'/home/russell/Dropbox/TrendMapper/test/test_qgis_environment.py'
g9
S'QGISTest.test_qgis_environment'
tp11
sI4
(S'/home/russell/Dropbox/TrendMapper/test/test_resources.py'
S'TrendMapper.test.test_resources'
S'TrendMapperDialogTest.test_icon_png'
tp12
sI5
(S'/home/russell/Dropbox/TrendMapper/test/test_translations.py'
S'TrendMapper.test.test_translations'
S'SafeTranslationsTest.test_qgis_translations'
tp13
sI6
(S'/home/russell/Dropbox/TrendMapper/test/test_trend_mapper_dialog.py'
S'TrendMapper.test.test_trend_mapper_dialog'
Ntp14
sI7
(S'/home/russell/Dropbox/TrendMapper/test/test_trend_mapper_dialog.py'
S'TrendMapper.test.test_trend_mapper_dialog'
p15
S'TrendMapperDialogTest.test_dialog_cancel'
tp16
sI8
(S'/home/russell/Dropbox/TrendMapper/test/test_trend_mapper_dialog.py'
g15
S'TrendMapperDialogTest.test_dialog_ok'
tp17
sI9
(S'/home/russell/Dropbox/TrendMapper/test/test_trend_mapper_dialog.py'
g15
S'TrendMapperDialogTest.test_setAttributeCombos'
tp18
ss.